; Function Attrs: mustprogress uwtable
define void @_ZN6icu_756number4impl22MutablePatternModifierC2Eb(ptr noundef nonnull align 8 dereferenceable(392) %this, i1 noundef zeroext %isStrong) unnamed_addr #1 align 2 personality ptr @__gxx_personality_v0 {
entry:
  %frombool = zext i1 %isStrong to i8
  %0 = getelementptr inbounds i8, ptr %this, i64 8
  %1 = getelementptr inbounds i8, ptr %this, i64 16
  store ptr getelementptr inbounds ({ [13 x ptr], [11 x ptr], [5 x ptr] }, ptr @_ZTVN6icu_756number4impl22MutablePatternModifierE, i64 0, i32 0, i64 2), ptr %this, align 8
  store ptr getelementptr inbounds ({ [13 x ptr], [11 x ptr], [5 x ptr] }, ptr @_ZTVN6icu_756number4impl22MutablePatternModifierE, i64 0, i32 1, i64 2), ptr %0, align 8
  store ptr getelementptr inbounds ({ [13 x ptr], [11 x ptr], [5 x ptr] }, ptr @_ZTVN6icu_756number4impl22MutablePatternModifierE, i64 0, i32 2, i64 2), ptr %1, align 8
  %fStrong = getelementptr inbounds i8, ptr %this, i64 24
  store i8 %frombool, ptr %fStrong, align 8
  %fCurrency.i = getelementptr inbounds i8, ptr %this, i64 80
  invoke void @_ZN6icu_7512CurrencyUnitC1Ev(ptr noundef nonnull align 8 dereferenceable(28) %fCurrency.i)
          to label %.noexc unwind label %lpad

.noexc:                                           ; preds = %entry
  %fLocaleName.i = getelementptr inbounds i8, ptr %this, i64 112
  invoke void @_ZN6icu_7515MaybeStackArrayIcLi40EEC1Ev(ptr noundef nonnull align 8 dereferenceable(53) %fLocaleName.i)
          to label %invoke.cont5 unwind label %lpad.i

lpad.i:                                           ; preds = %.noexc
  %2 = landingpad { ptr, i32 }
          cleanup
  tail call void @_ZN6icu_7512CurrencyUnitD1Ev(ptr noundef nonnull align 8 dereferenceable(28) %fCurrency.i) #21
  br label %ehcleanup

invoke.cont5:                                     ; preds = %.noexc
  %len.i.i = getelementptr inbounds i8, ptr %this, i64 168
  store i32 0, ptr %len.i.i, align 8
  %3 = load ptr, ptr %fLocaleName.i, align 8
  store i8 0, ptr %3, align 1
  %fCurrencySymbol.i = getelementptr inbounds i8, ptr %this, i64 176
  store ptr getelementptr inbounds ({ [13 x ptr] }, ptr @_ZTVN6icu_7513UnicodeStringE, i64 0, i32 0, i64 2), ptr %fCurrencySymbol.i, align 8
  %fUnion2.i.i = getelementptr inbounds i8, ptr %this, i64 184
  store i16 2, ptr %fUnion2.i.i, align 8
  %fIntlCurrencySymbol.i = getelementptr inbounds i8, ptr %this, i64 240
  store ptr getelementptr inbounds ({ [13 x ptr] }, ptr @_ZTVN6icu_7513UnicodeStringE, i64 0, i32 0, i64 2), ptr %fIntlCurrencySymbol.i, align 8
  %fUnion2.i3.i = getelementptr inbounds i8, ptr %this, i64 248
  store i16 2, ptr %fUnion2.i3.i, align 8
  %currentAffix = getelementptr inbounds i8, ptr %this, i64 328
  store ptr getelementptr inbounds ({ [13 x ptr] }, ptr @_ZTVN6icu_7513UnicodeStringE, i64 0, i32 0, i64 2), ptr %currentAffix, align 8
  %fUnion2.i = getelementptr inbounds i8, ptr %this, i64 336
  store i16 2, ptr %fUnion2.i, align 8
  ret void

lpad:                                             ; preds = %entry
  %4 = landingpad { ptr, i32 }
          cleanup
  br label %ehcleanup

ehcleanup:                                        ; preds = %lpad, %lpad.i
  %.pn = phi { ptr, i32 } [ %4, %lpad ], [ %2, %lpad.i ]
  tail call void @_ZN6icu_756number4impl14SymbolProviderD2Ev(ptr noundef nonnull align 8 dereferenceable(8) %1) #21
  tail call void @_ZN6icu_756number4impl8ModifierD2Ev(ptr noundef nonnull align 8 dereferenceable(8) %0) #21
  resume { ptr, i32 } %.pn
}